(dp0
S'exception'
p1
NsS'data_set'
p2
S'iris'
p3
sS'name'
p4
S'kernel(poly)-degree(2)-C(2.511886e-01)'
p5
sS'algorithm'
p6
S'svm'
p7
sS'sklearn_metric_recall'
p8
cnumpy.core.multiarray
scalar
p9
(cnumpy
dtype
p10
(S'f8'
p11
I0
I1
tp12
Rp13
(I3
S'<'
p14
NNNI-1
I-1
I0
tp15
bS'\xf6(\\\x8f\xc2\xf5\xe8?'
p16
tp17
Rp18
sS'ml_metric_ce'
p19
F0.22
sS'sklearn_metric_accuracy'
p20
g9
(g13
S'\xf6(\\\x8f\xc2\xf5\xe8?'
p21
tp22
Rp23
sS'ml_metric_auc'
p24
(dp25
g9
(g10
(S'u1'
p26
I0
I1
tp27
Rp28
(I3
S'|'
p29
NNNI-1
I-1
I0
tp30
bS'\x00'
p31
tp32
Rp33
F0.8786764705882353
sg9
(g28
S'\x01'
p34
tp35
Rp36
F0.9242424242424242
sg9
(g28
S'\x02'
p37
tp38
Rp39
F0.7049910873440285
ssS'sklearn_metric_precision'
p40
g9
(g13
S'XEX3b\x13\xe9?'
p41
tp42
Rp43
sS'dump_path'
p44
S'runs/iris/2/svm'
p45
sS'ml_metric_rmse'
p46
g9
(g13
S'\x8c\x03Ka\xd7^\xe8?'
p47
tp48
Rp49
sS'sklearn_metric_f1'
p50
g9
(g13
S'\x8e:\x08\xe3\x8f]\xe8?'
p51
tp52
Rp53
sS'predicted'
p54
cnumpy.core.multiarray
_reconstruct
p55
(cnumpy
ndarray
p56
(I0
tp57
S'b'
p58
tp59
Rp60
(I1
(I50
tp61
g28
I00
S'\x00\x00\x00\x00\x00\x00\x00\x02\x00\x00\x00\x00\x00\x02\x00\x00\x01\x01\x01\x01\x01\x01\x01\x01\x01\x01\x01\x01\x01\x01\x01\x01\x01\x00\x00\x00\x02\x02\x02\x02\x00\x01\x01\x01\x02\x01\x02\x02\x02\x01'
p62
tp63
bsS'parameterization'
p64
(dp65
S'kernel'
p66
S'poly'
p67
sS'C'
p68
g9
(g13
S'=p\xdd\x87y\x13\xd0?'
p69
tp70
Rp71
sS'degree'
p72
I2
ssS'sklearn_metric_auc'
p73
(dp74
g33
g9
(g13
S'\x1e\x1e\x1e\x1e\x1e\x1e\xec?'
p75
tp76
Rp77
sg36
g9
(g13
S'\x94M6\xd9d\x93\xed?'
p78
tp79
Rp80
sg39
g9
(g13
S'\x90\xa6\x03xI\x8f\xe6?'
p81
tp82
Rp83
ssS'trial_index'
p84
I2
s.