(dp0
S'exception'
p1
NsS'name'
p2
S'kernel(poly)-degree(2)-C(1.000000e-09)'
p3
sS'algorithm'
p4
S'svm'
p5
sS'sklearn_metric_recall'
p6
cnumpy.core.multiarray
scalar
p7
(cnumpy
dtype
p8
(S'f8'
p9
I0
I1
tp10
Rp11
(I3
S'<'
p12
NNNI-1
I-1
I0
tp13
bS'{\x14\xaeG\xe1z\xd4?'
p14
tp15
Rp16
sS'data_set'
p17
S'iris'
p18
sS'sklearn_metric_accuracy'
p19
g7
(g11
S'{\x14\xaeG\xe1z\xd4?'
p20
tp21
Rp22
sS'ml_metric_auc'
p23
(dp24
g7
(g8
(S'u1'
p25
I0
I1
tp26
Rp27
(I3
S'|'
p28
NNNI-1
I-1
I0
tp29
bS'\x00'
p30
tp31
Rp32
F0.5
sg7
(g27
S'\x01'
p33
tp34
Rp35
F0.5
sg7
(g27
S'\x02'
p36
tp37
Rp38
F0.5
ssS'sklearn_metric_precision'
p39
g7
(g11
S'-C\x1c\xeb\xe26\xba?'
p40
tp41
Rp42
sS'dump_path'
p43
S'runs/iris/1/svm'
p44
sS'ml_metric_rmse'
p45
g7
(g11
S'\xa5\xe1\x7f\xd7Kc\xea?'
p46
tp47
Rp48
sS'sklearn_metric_f1'
p49
g7
(g11
S'\xdc\x13\xc0=\x01\xdc\xc3?'
p50
tp51
Rp52
sS'predicted'
p53
cnumpy.core.multiarray
_reconstruct
p54
(cnumpy
ndarray
p55
(I0
tp56
S'b'
p57
tp58
Rp59
(I1
(I50
tp60
g8
(S'u1'
p61
I0
I1
tp62
Rp63
(I3
S'|'
p64
NNNI-1
I-1
I0
tp65
bI00
S'\x01\x01\x01\x01\x01\x01\x01\x01\x01\x01\x01\x01\x01\x01\x01\x01\x01\x01\x01\x01\x01\x01\x01\x01\x01\x01\x01\x01\x01\x01\x01\x01\x01\x01\x01\x01\x01\x01\x01\x01\x01\x01\x01\x01\x01\x01\x01\x01\x01\x01'
p66
tp67
bsS'ml_metric_ce'
p68
F0.68
sS'parameterization'
p69
(dp70
S'kernel'
p71
S'poly'
p72
sS'C'
p73
g7
(g11
S'\x95\xd6&\xe8\x0b.\x11>'
p74
tp75
Rp76
sS'degree'
p77
I2
ssS'sklearn_metric_auc'
p78
(dp79
g32
g7
(g11
S'\x00\x00\x00\x00\x00\x00\xe0?'
p80
tp81
Rp82
sg35
g7
(g11
S'\x00\x00\x00\x00\x00\x00\xe0?'
p83
tp84
Rp85
sg38
g7
(g11
S'\x00\x00\x00\x00\x00\x00\xe0?'
p86
tp87
Rp88
ssS'trial_index'
p89
I1
s.