(dp0
S'ml_metric_auc'
p1
(dp2
cnumpy.core.multiarray
scalar
p3
(cnumpy
dtype
p4
(S'u1'
p5
I0
I1
tp6
Rp7
(I3
S'|'
p8
NNNI-1
I-1
I0
tp9
bS'\x00'
p10
tp11
Rp12
F1.0
sg3
(g7
S'\x01'
p13
tp14
Rp15
F0.96875
sg3
(g7
S'\x02'
p16
tp17
Rp18
F0.9848484848484849
ssS'exception'
p19
NsS'name'
p20
S'kernel(rbf)-gamma(0.001)-C(1.000000e+05)'
p21
sS'algorithm'
p22
S'svm'
p23
sS'sklearn_metric_recall'
p24
g3
(g4
(S'f8'
p25
I0
I1
tp26
Rp27
(I3
S'<'
p28
NNNI-1
I-1
I0
tp29
bS'\\\x8f\xc2\xf5(\\\xef?'
p30
tp31
Rp32
sS'ml_metric_ce'
p33
F0.02
sS'sklearn_metric_accuracy'
p34
g3
(g27
S'\\\x8f\xc2\xf5(\\\xef?'
p35
tp36
Rp37
sS'parameterization'
p38
(dp39
S'kernel'
p40
S'rbf'
p41
sS'C'
p42
g3
(g27
S'\x00\x00\x00\x00\x00j\xf8@'
p43
tp44
Rp45
sS'gamma'
p46
F0.001
ssS'sklearn_metric_precision'
p47
g3
(g27
S'\xbb\xdc\xfe Ce\xef?'
p48
tp49
Rp50
sS'dump_path'
p51
S'runs/iris/1/svm'
p52
sS'ml_metric_rmse'
p53
g3
(g27
S'\nc\xffQ\x18\x1a\xc2?'
p54
tp55
Rp56
sS'sklearn_metric_f1'
p57
g3
(g27
S'\x04\xb3H\xa5\xdb[\xef?'
p58
tp59
Rp60
sS'predicted'
p61
cnumpy.core.multiarray
_reconstruct
p62
(cnumpy
ndarray
p63
(I0
tp64
S'b'
p65
tp66
Rp67
(I1
(I50
tp68
g4
(S'u1'
p69
I0
I1
tp70
Rp71
(I3
S'|'
p72
NNNI-1
I-1
I0
tp73
bI00
S'\x00\x00\x00\x00\x00\x00\x00\x00\x00\x00\x00\x00\x00\x00\x00\x00\x00\x01\x01\x01\x01\x01\x01\x01\x01\x01\x02\x01\x01\x01\x01\x01\x01\x02\x02\x02\x02\x02\x02\x02\x02\x02\x02\x02\x02\x02\x02\x02\x02\x02'
p74
tp75
bsS'data_set'
p76
S'iris'
p77
sS'sklearn_metric_auc'
p78
(dp79
g12
g3
(g27
S'\x00\x00\x00\x00\x00\x00\xf0?'
p80
tp81
Rp82
sg15
g3
(g27
S'\x00\x00\x00\x00\x00\x00\xef?'
p83
tp84
Rp85
sg18
g3
(g27
S'\x84\x0f>\xf8\xe0\x83\xef?'
p86
tp87
Rp88
ssS'trial_index'
p89
I1
s.