(dp0
S'exception'
p1
NsS'ml_metric_ce'
p2
F0.02
sS'name'
p3
S'kernel(rbf)-gamma(0.001)-C(1.000000e+05)'
p4
sS'algorithm'
p5
S'svm'
p6
sS'sklearn_metric_recall'
p7
cnumpy.core.multiarray
scalar
p8
(cnumpy
dtype
p9
(S'f8'
p10
I0
I1
tp11
Rp12
(I3
S'<'
p13
NNNI-1
I-1
I0
tp14
bS'\\\x8f\xc2\xf5(\\\xef?'
p15
tp16
Rp17
sS'data_set'
p18
S'iris'
p19
sS'sklearn_metric_accuracy'
p20
g8
(g12
S'\\\x8f\xc2\xf5(\\\xef?'
p21
tp22
Rp23
sS'parameterization'
p24
(dp25
S'kernel'
p26
S'rbf'
p27
sS'C'
p28
g8
(g12
S'\x00\x00\x00\x00\x00j\xf8@'
p29
tp30
Rp31
sS'gamma'
p32
F0.001
ssS'sklearn_metric_precision'
p33
g8
(g12
S'\xbb\xdc\xfe Ce\xef?'
p34
tp35
Rp36
sS'dump_path'
p37
S'runs/iris/1/svm'
p38
sS'ml_metric_rmse'
p39
g8
(g12
S'\nc\xffQ\x18\x1a\xc2?'
p40
tp41
Rp42
sS'sklearn_metric_f1'
p43
g8
(g12
S'\x04\xb3H\xa5\xdb[\xef?'
p44
tp45
Rp46
sS'predicted'
p47
cnumpy.core.multiarray
_reconstruct
p48
(cnumpy
ndarray
p49
(I0
tp50
S'b'
p51
tp52
Rp53
(I1
(I50
tp54
g9
(S'u1'
p55
I0
I1
tp56
Rp57
(I3
S'|'
p58
NNNI-1
I-1
I0
tp59
bI00
S'\x00\x00\x00\x00\x00\x00\x00\x00\x00\x00\x00\x00\x00\x00\x00\x00\x00\x01\x01\x01\x01\x01\x01\x01\x01\x01\x02\x01\x01\x01\x01\x01\x01\x02\x02\x02\x02\x02\x02\x02\x02\x02\x02\x02\x02\x02\x02\x02\x02\x02'
p60
tp61
bsS'ml_metric_auc'
p62
(dp63
g8
(g9
(S'u1'
p64
I0
I1
tp65
Rp66
(I3
S'|'
p67
NNNI-1
I-1
I0
tp68
bS'\x00'
p69
tp70
Rp71
F1.0
sg8
(g66
S'\x01'
p72
tp73
Rp74
F0.96875
sg8
(g66
S'\x02'
p75
tp76
Rp77
F0.9848484848484849
ssS'sklearn_metric_auc'
p78
(dp79
g71
g8
(g12
S'\x00\x00\x00\x00\x00\x00\xf0?'
p80
tp81
Rp82
sg74
g8
(g12
S'\x00\x00\x00\x00\x00\x00\xef?'
p83
tp84
Rp85
sg77
g8
(g12
S'\x84\x0f>\xf8\xe0\x83\xef?'
p86
tp87
Rp88
ssS'trial_index'
p89
I1
s.