(dp0
S'min'
p1
cnumpy.core.multiarray
scalar
p2
(cnumpy
dtype
p3
(S'f8'
p4
I0
I1
tp5
Rp6
(I3
S'<'
p7
NNNI-1
I-1
I0
tp8
bS'\xb8\x1e\x85\xebQ\xb8\xee?'
p9
tp10
Rp11
sS'max'
p12
g2
(g6
S'\\\x8f\xc2\xf5(\\\xef?'
p13
tp14
Rp15
sS'results'
p16
(lp17
(dp18
S'exception'
p19
NsS'ml_metric_ce'
p20
F0.04
sS'name'
p21
S'neighbors(5)-weights(gaussian)-width(7.289000e+02)'
p22
sS'algorithm'
p23
S'knn'
p24
sS'sklearn_metric_recall'
p25
g2
(g6
S'\xb8\x1e\x85\xebQ\xb8\xee?'
p26
tp27
Rp28
sS'data_set'
p29
S'iris'
p30
sS'sklearn_metric_accuracy'
p31
g2
(g6
S'\xb8\x1e\x85\xebQ\xb8\xee?'
p32
tp33
Rp34
sS'parameterization'
p35
(dp36
S'n_neighbors'
p37
I5
sS'width'
p38
g2
(g6
S'33333\xc7\x86@'
p39
tp40
Rp41
ssS'sklearn_metric_precision'
p42
g2
(g6
S'\xb8\x1e\x85\xebQ\xb8\xee?'
p43
tp44
Rp45
sS'dump_path'
p46
S'runs/iris/0/knn'
p47
sS'ml_metric_rmse'
p48
g2
(g6
S'\x9a\x99\x99\x99\x99\x99\xc9?'
p49
tp50
Rp51
sS'sklearn_metric_f1'
p52
g11
sS'predicted'
p53
cnumpy.core.multiarray
_reconstruct
p54
(cnumpy
ndarray
p55
(I0
tp56
S'b'
p57
tp58
Rp59
(I1
(I50
tp60
g3
(S'u1'
p61
I0
I1
tp62
Rp63
(I3
S'|'
p64
NNNI-1
I-1
I0
tp65
bI00
S'\x00\x00\x00\x00\x00\x00\x00\x00\x00\x00\x00\x00\x00\x00\x00\x00\x00\x01\x01\x01\x01\x01\x01\x01\x02\x01\x01\x01\x01\x01\x01\x01\x01\x01\x02\x02\x01\x02\x02\x02\x02\x02\x02\x02\x02\x02\x02\x02\x02\x02'
p66
tp67
bsS'ml_metric_auc'
p68
(dp69
g2
(g3
(S'u1'
p70
I0
I1
tp71
Rp72
(I3
S'|'
p73
NNNI-1
I-1
I0
tp74
bS'\x00'
p75
tp76
Rp77
F1.0
sg2
(g72
S'\x01'
p78
tp79
Rp80
F0.9554367201426025
sg2
(g72
S'\x02'
p81
tp82
Rp83
F0.9540441176470589
ssS'sklearn_metric_auc'
p84
(dp85
g77
g2
(g6
S'\x00\x00\x00\x00\x00\x00\xf0?'
p86
tp87
Rp88
sg80
g2
(g6
S'\x93\x1eM\x07\xf0\x92\xee?'
p89
tp90
Rp91
sg83
g2
(g6
S'\x88\x87\x87\x87\x87\x87\xee?'
p92
tp93
Rp94
ssS'trial_index'
p95
I0
sa(dp96
S'exception'
p97
NsS'ml_metric_ce'
p98
F0.02
sS'name'
p99
S'neighbors(5)-weights(gaussian)-width(7.289000e+02)'
p100
sS'algorithm'
p101
S'knn'
p102
sS'sklearn_metric_recall'
p103
g2
(g6
S'\\\x8f\xc2\xf5(\\\xef?'
p104
tp105
Rp106
sS'data_set'
p107
S'iris'
p108
sS'sklearn_metric_accuracy'
p109
g2
(g6
S'\\\x8f\xc2\xf5(\\\xef?'
p110
tp111
Rp112
sS'parameterization'
p113
(dp114
S'n_neighbors'
p115
I5
sS'width'
p116
g2
(g6
S'33333\xc7\x86@'
p117
tp118
Rp119
ssS'sklearn_metric_precision'
p120
g2
(g6
S'f\xff\x982\xcce\xef?'
p121
tp122
Rp123
sS'dump_path'
p124
S'runs/iris/1/knn'
p125
sS'ml_metric_rmse'
p126
g2
(g6
S'\nc\xffQ\x18\x1a\xc2?'
p127
tp128
Rp129
sS'sklearn_metric_f1'
p130
g15
sS'predicted'
p131
g54
(g55
(I0
tp132
g57
tp133
Rp134
(I1
(I50
tp135
g3
(S'u1'
p136
I0
I1
tp137
Rp138
(I3
S'|'
p139
NNNI-1
I-1
I0
tp140
bI00
S'\x00\x00\x00\x00\x00\x00\x00\x00\x00\x00\x00\x00\x00\x00\x00\x00\x00\x01\x01\x01\x01\x01\x01\x01\x01\x01\x01\x01\x01\x01\x01\x01\x01\x02\x02\x02\x02\x02\x02\x02\x01\x02\x02\x02\x02\x02\x02\x02\x02\x02'
p141
tp142
bsS'ml_metric_auc'
p143
(dp144
g2
(g72
g75
tp145
Rp146
F1.0
sg2
(g72
g78
tp147
Rp148
F0.9852941176470589
sg2
(g72
g81
tp149
Rp150
F0.9705882352941176
ssS'sklearn_metric_auc'
p151
(dp152
g146
g2
(g6
S'\x00\x00\x00\x00\x00\x00\xf0?'
p153
tp154
Rp155
sg148
g2
(g6
S'\x87\x87\x87\x87\x87\x87\xef?'
p156
tp157
Rp158
sg150
g2
(g6
S'\x0f\x0f\x0f\x0f\x0f\x0f\xef?'
p159
tp160
Rp161
ssS'trial_index'
p162
I1
sa(dp163
S'exception'
p164
NsS'ml_metric_ce'
p165
F0.02
sS'name'
p166
S'neighbors(500)-weights(distance)'
p167
sS'algorithm'
p168
S'knn'
p169
sS'sklearn_metric_recall'
p170
g2
(g6
S'\\\x8f\xc2\xf5(\\\xef?'
p171
tp172
Rp173
sS'data_set'
p174
S'iris'
p175
sS'sklearn_metric_accuracy'
p176
g2
(g6
S'\\\x8f\xc2\xf5(\\\xef?'
p177
tp178
Rp179
sS'parameterization'
p180
(dp181
S'n_neighbors'
p182
I500
sS'weights'
p183
S'distance'
p184
ssS'sklearn_metric_precision'
p185
g2
(g6
S'\xbb\xdc\xfe Ce\xef?'
p186
tp187
Rp188
sS'dump_path'
p189
S'runs/iris/2/knn'
p190
sS'ml_metric_rmse'
p191
g2
(g6
S'\nc\xffQ\x18\x1a\xc2?'
p192
tp193
Rp194
sS'sklearn_metric_f1'
p195
g2
(g6
S'\x04CK\xa5\x04\\\xef?'
p196
tp197
Rp198
sS'predicted'
p199
g54
(g55
(I0
tp200
g57
tp201
Rp202
(I1
(I50
tp203
g3
(S'u1'
p204
I0
I1
tp205
Rp206
(I3
S'|'
p207
NNNI-1
I-1
I0
tp208
bI00
S'\x00\x00\x00\x00\x00\x00\x00\x00\x00\x00\x00\x00\x00\x00\x00\x00\x01\x01\x01\x01\x01\x01\x01\x01\x01\x01\x01\x01\x01\x01\x01\x01\x01\x02\x02\x02\x02\x02\x02\x02\x02\x02\x02\x01\x02\x02\x02\x02\x02\x02'
p209
tp210
bsS'ml_metric_auc'
p211
(dp212
g2
(g72
g75
tp213
Rp214
F1.0
sg2
(g72
g78
tp215
Rp216
F0.9848484848484849
sg2
(g72
g81
tp217
Rp218
F0.9705882352941176
ssS'sklearn_metric_auc'
p219
(dp220
g214
g2
(g6
S'\x00\x00\x00\x00\x00\x00\xf0?'
p221
tp222
Rp223
sg216
g2
(g6
S'\x84\x0f>\xf8\xe0\x83\xef?'
p224
tp225
Rp226
sg218
g2
(g6
S'\x0f\x0f\x0f\x0f\x0f\x0f\xef?'
p227
tp228
Rp229
ssS'trial_index'
p230
I2
sasS'scores'
p231
(lp232
g11
ag15
ag198
asS'variance'
p233
g2
(g6
S'w\xa0ln\xe5L\x83?'
p234
tp235
Rp236
sS'mean'
p237
g2
(g6
S']P\x86\xd7\x7f%\xef?'
p238
tp239
Rp240
s.