(dp0
S'min'
p1
cnumpy.core.multiarray
scalar
p2
(cnumpy
dtype
p3
(S'f8'
p4
I0
I1
tp5
Rp6
(I3
S'<'
p7
NNNI-1
I-1
I0
tp8
bS'\nc\xffQ\x18\x1a\xc2?'
p9
tp10
Rp11
sS'max'
p12
g2
(g6
S'Jh\xdb\xec|Z\xcf?'
p13
tp14
Rp15
sS'results'
p16
(lp17
(dp18
S'ml_metric_auc'
p19
(dp20
g2
(g3
(S'u1'
p21
I0
I1
tp22
Rp23
(I3
S'|'
p24
NNNI-1
I-1
I0
tp25
bS'\x00'
p26
tp27
Rp28
F1.0
sg2
(g23
S'\x01'
p29
tp30
Rp31
F0.9260249554367201
sg2
(g23
S'\x02'
p32
tp33
Rp34
F0.9393382352941176
ssS'exception'
p35
NsS'name'
p36
S'estimators(500)-split(4)'
p37
sS'algorithm'
p38
S'rf'
p39
sS'sklearn_metric_recall'
p40
g2
(g6
S'\x14\xaeG\xe1z\x14\xee?'
p41
tp42
Rp43
sS'ml_metric_ce'
p44
F0.06
sS'sklearn_metric_accuracy'
p45
g2
(g6
S'\x14\xaeG\xe1z\x14\xee?'
p46
tp47
Rp48
sS'parameterization'
p49
(dp50
S'n_estimators'
p51
I500
sS'split'
p52
I4
ssS'sklearn_metric_precision'
p53
g2
(g6
S'\x1d\xb7P\xea\x83\x1d\xee?'
p54
tp55
Rp56
sS'dump_path'
p57
S'runs/iris/0/rf'
p58
sS'ml_metric_rmse'
p59
g15
sS'sklearn_metric_f1'
p60
g2
(g6
S'\x14\xaeG\xe1z\x14\xee?'
p61
tp62
Rp63
sS'predicted'
p64
cnumpy.core.multiarray
_reconstruct
p65
(cnumpy
ndarray
p66
(I0
tp67
S'b'
p68
tp69
Rp70
(I1
(I50
tp71
g3
(S'u1'
p72
I0
I1
tp73
Rp74
(I3
S'|'
p75
NNNI-1
I-1
I0
tp76
bI00
S'\x00\x00\x00\x00\x00\x00\x00\x00\x00\x00\x00\x00\x00\x00\x00\x00\x00\x01\x01\x01\x01\x01\x01\x01\x02\x01\x01\x02\x01\x01\x01\x01\x01\x01\x02\x02\x01\x02\x02\x02\x02\x02\x02\x02\x02\x02\x02\x02\x02\x02'
p77
tp78
bsS'data_set'
p79
S'iris'
p80
sS'sklearn_metric_auc'
p81
(dp82
g28
g2
(g6
S'\x00\x00\x00\x00\x00\x00\xf0?'
p83
tp84
Rp85
sg31
g2
(g6
S'\xa3-\\\x16\xff\xa1\xed?'
p86
tp87
Rp88
sg34
g2
(g6
S'\x0f\x0f\x0f\x0f\x0f\x0f\xee?'
p89
tp90
Rp91
ssS'trial_index'
p92
I0
sa(dp93
S'ml_metric_auc'
p94
(dp95
g2
(g23
g26
tp96
Rp97
F1.0
sg2
(g23
g29
tp98
Rp99
F0.9393382352941176
sg2
(g23
g32
tp100
Rp101
F0.9260249554367201
ssS'exception'
p102
NsS'name'
p103
S'estimators(500)-split(2)'
p104
sS'algorithm'
p105
S'rf'
p106
sS'sklearn_metric_recall'
p107
g2
(g6
S'\x14\xaeG\xe1z\x14\xee?'
p108
tp109
Rp110
sS'ml_metric_ce'
p111
F0.06
sS'sklearn_metric_accuracy'
p112
g2
(g6
S'\x14\xaeG\xe1z\x14\xee?'
p113
tp114
Rp115
sS'parameterization'
p116
(dp117
S'n_estimators'
p118
I500
sS'split'
p119
I2
ssS'sklearn_metric_precision'
p120
g2
(g6
S'\x1d\xb7P\xea\x83\x1d\xee?'
p121
tp122
Rp123
sS'dump_path'
p124
S'runs/iris/1/rf'
p125
sS'ml_metric_rmse'
p126
g2
(g6
S'Jh\xdb\xec|Z\xcf?'
p127
tp128
Rp129
sS'sklearn_metric_f1'
p130
g2
(g6
S'\x14\xaeG\xe1z\x14\xee?'
p131
tp132
Rp133
sS'predicted'
p134
g65
(g66
(I0
tp135
g68
tp136
Rp137
(I1
(I50
tp138
g3
(S'u1'
p139
I0
I1
tp140
Rp141
(I3
S'|'
p142
NNNI-1
I-1
I0
tp143
bI00
S'\x00\x00\x00\x00\x00\x00\x00\x00\x00\x00\x00\x00\x00\x00\x00\x00\x00\x01\x01\x01\x01\x01\x01\x01\x01\x01\x02\x01\x01\x01\x01\x01\x01\x02\x02\x02\x02\x02\x02\x02\x01\x02\x02\x02\x02\x02\x02\x01\x02\x02'
p144
tp145
bsS'data_set'
p146
S'iris'
p147
sS'sklearn_metric_auc'
p148
(dp149
g97
g2
(g6
S'\x00\x00\x00\x00\x00\x00\xf0?'
p150
tp151
Rp152
sg99
g2
(g6
S'\x0f\x0f\x0f\x0f\x0f\x0f\xee?'
p153
tp154
Rp155
sg101
g2
(g6
S'\xa3-\\\x16\xff\xa1\xed?'
p156
tp157
Rp158
ssS'trial_index'
p159
I1
sa(dp160
S'ml_metric_auc'
p161
(dp162
g2
(g23
g26
tp163
Rp164
F1.0
sg2
(g23
g29
tp165
Rp166
F0.9848484848484849
sg2
(g23
g32
tp167
Rp168
F0.9705882352941176
ssS'exception'
p169
NsS'name'
p170
S'estimators(500)-split(4)'
p171
sS'algorithm'
p172
S'rf'
p173
sS'sklearn_metric_recall'
p174
g2
(g6
S'\\\x8f\xc2\xf5(\\\xef?'
p175
tp176
Rp177
sS'ml_metric_ce'
p178
F0.02
sS'sklearn_metric_accuracy'
p179
g2
(g6
S'\\\x8f\xc2\xf5(\\\xef?'
p180
tp181
Rp182
sS'parameterization'
p183
(dp184
S'n_estimators'
p185
I500
sS'split'
p186
I4
ssS'sklearn_metric_precision'
p187
g2
(g6
S'\xbb\xdc\xfe Ce\xef?'
p188
tp189
Rp190
sS'dump_path'
p191
S'runs/iris/2/rf'
p192
sS'ml_metric_rmse'
p193
g11
sS'sklearn_metric_f1'
p194
g2
(g6
S'\x04CK\xa5\x04\\\xef?'
p195
tp196
Rp197
sS'predicted'
p198
g65
(g66
(I0
tp199
g68
tp200
Rp201
(I1
(I50
tp202
g3
(S'u1'
p203
I0
I1
tp204
Rp205
(I3
S'|'
p206
NNNI-1
I-1
I0
tp207
bI00
S'\x00\x00\x00\x00\x00\x00\x00\x00\x00\x00\x00\x00\x00\x00\x00\x00\x01\x01\x01\x01\x01\x01\x01\x01\x01\x01\x01\x01\x01\x01\x01\x01\x01\x02\x02\x02\x02\x02\x02\x02\x02\x02\x02\x01\x02\x02\x02\x02\x02\x02'
p208
tp209
bsS'data_set'
p210
S'iris'
p211
sS'sklearn_metric_auc'
p212
(dp213
g164
g2
(g6
S'\x00\x00\x00\x00\x00\x00\xf0?'
p214
tp215
Rp216
sg166
g2
(g6
S'\x84\x0f>\xf8\xe0\x83\xef?'
p217
tp218
Rp219
sg168
g2
(g6
S'\x0f\x0f\x0f\x0f\x0f\x0f\xef?'
p220
tp221
Rp222
ssS'trial_index'
p223
I2
sasS'scores'
p224
(lp225
g15
ag129
ag11
asS'variance'
p226
g2
(g6
S'8N\xab\xef\xc1\xfc\xa8?'
p227
tp228
Rp229
sS'mean'
p230
g2
(g6
S'\xe0\xbb<\xb9\xb0\xef\xca?'
p231
tp232
Rp233
s.