(dp0
S'exception'
p1
NsS'name'
p2
S'penalty(none)-alpha(1.000000e+05)'
p3
sS'algorithm'
p4
S'pr'
p5
sS'sklearn_metric_recall'
p6
cnumpy.core.multiarray
scalar
p7
(cnumpy
dtype
p8
(S'f8'
p9
I0
I1
tp10
Rp11
(I3
S'<'
p12
NNNI-1
I-1
I0
tp13
bS'\xc3\xf5(\\\x8f\xc2\xe5?'
p14
tp15
Rp16
sS'data_set'
p17
S'iris'
p18
sS'sklearn_metric_accuracy'
p19
g7
(g11
S'\xc3\xf5(\\\x8f\xc2\xe5?'
p20
tp21
Rp22
sS'ml_metric_auc'
p23
(dp24
g7
(g8
(S'u1'
p25
I0
I1
tp26
Rp27
(I3
S'|'
p28
NNNI-1
I-1
I0
tp29
bS'\x00'
p30
tp31
Rp32
F1.0
sg7
(g27
S'\x01'
p33
tp34
Rp35
F0.5
sg7
(g27
S'\x02'
p36
tp37
Rp38
F0.7575757575757576
ssS'sklearn_metric_precision'
p39
g7
(g11
S'|\xf0\xc1\x07\x1f|\xe0?'
p40
tp41
Rp42
sS'dump_path'
p43
S'runs/iris/1/pr'
p44
sS'ml_metric_rmse'
p45
g7
(g11
S'\nc\xffQ\x18\x1a\xe2?'
p46
tp47
Rp48
sS'sklearn_metric_f1'
p49
g7
(g11
S'\xd64\xef8EG\xe2?'
p50
tp51
Rp52
sS'predicted'
p53
cnumpy.core.multiarray
_reconstruct
p54
(cnumpy
ndarray
p55
(I0
tp56
S'b'
p57
tp58
Rp59
(I1
(I50
tp60
g8
(S'u1'
p61
I0
I1
tp62
Rp63
(I3
S'|'
p64
NNNI-1
I-1
I0
tp65
bI00
S'\x00\x00\x00\x00\x00\x00\x00\x00\x00\x00\x00\x00\x00\x00\x00\x00\x00\x02\x02\x02\x02\x02\x02\x02\x02\x02\x02\x02\x02\x02\x02\x02\x02\x02\x02\x02\x02\x02\x02\x02\x02\x02\x02\x02\x02\x02\x02\x02\x02\x02'
p66
tp67
bsS'ml_metric_ce'
p68
F0.32
sS'parameterization'
p69
(dp70
S'penalty'
p71
NsS'alpha'
p72
g7
(g11
S'\x00\x00\x00\x00\x00j\xf8@'
p73
tp74
Rp75
ssS'sklearn_metric_auc'
p76
(dp77
g32
g7
(g11
S'\x00\x00\x00\x00\x00\x00\xf0?'
p78
tp79
Rp80
sg35
g7
(g11
S'\x00\x00\x00\x00\x00\x00\xe0?'
p81
tp82
Rp83
sg38
g7
(g11
S'>\xf8\xe0\x83\x0f>\xe8?'
p84
tp85
Rp86
ssS'trial_index'
p87
I1
s.