(dp0
S'exception'
p1
NsS'name'
p2
S'estimators(500)-split(4)'
p3
sS'algorithm'
p4
S'rf'
p5
sS'sklearn_metric_recall'
p6
cnumpy.core.multiarray
scalar
p7
(cnumpy
dtype
p8
(S'f8'
p9
I0
I1
tp10
Rp11
(I3
S'<'
p12
NNNI-1
I-1
I0
tp13
bS'\x14\xaeG\xe1z\x14\xee?'
p14
tp15
Rp16
sS'data_set'
p17
S'iris'
p18
sS'sklearn_metric_accuracy'
p19
g7
(g11
S'\x14\xaeG\xe1z\x14\xee?'
p20
tp21
Rp22
sS'ml_metric_auc'
p23
(dp24
g7
(g8
(S'u1'
p25
I0
I1
tp26
Rp27
(I3
S'|'
p28
NNNI-1
I-1
I0
tp29
bS'\x00'
p30
tp31
Rp32
F1.0
sg7
(g27
S'\x01'
p33
tp34
Rp35
F0.9260249554367201
sg7
(g27
S'\x02'
p36
tp37
Rp38
F0.9393382352941176
ssS'sklearn_metric_precision'
p39
g7
(g11
S'\x1d\xb7P\xea\x83\x1d\xee?'
p40
tp41
Rp42
sS'dump_path'
p43
S'runs/iris/0/rf'
p44
sS'ml_metric_rmse'
p45
g7
(g11
S'Jh\xdb\xec|Z\xcf?'
p46
tp47
Rp48
sS'sklearn_metric_f1'
p49
g7
(g11
S'\x14\xaeG\xe1z\x14\xee?'
p50
tp51
Rp52
sS'predicted'
p53
cnumpy.core.multiarray
_reconstruct
p54
(cnumpy
ndarray
p55
(I0
tp56
S'b'
p57
tp58
Rp59
(I1
(I50
tp60
g8
(S'u1'
p61
I0
I1
tp62
Rp63
(I3
S'|'
p64
NNNI-1
I-1
I0
tp65
bI00
S'\x00\x00\x00\x00\x00\x00\x00\x00\x00\x00\x00\x00\x00\x00\x00\x00\x00\x01\x01\x01\x01\x01\x01\x01\x02\x01\x01\x02\x01\x01\x01\x01\x01\x01\x02\x02\x01\x02\x02\x02\x02\x02\x02\x02\x02\x02\x02\x02\x02\x02'
p66
tp67
bsS'ml_metric_ce'
p68
F0.06
sS'parameterization'
p69
(dp70
S'n_estimators'
p71
I500
sS'split'
p72
I4
ssS'sklearn_metric_auc'
p73
(dp74
g32
g7
(g11
S'\x00\x00\x00\x00\x00\x00\xf0?'
p75
tp76
Rp77
sg35
g7
(g11
S'\xa3-\\\x16\xff\xa1\xed?'
p78
tp79
Rp80
sg38
g7
(g11
S'\x0f\x0f\x0f\x0f\x0f\x0f\xee?'
p81
tp82
Rp83
ssS'trial_index'
p84
I0
s.