(dp0
S'exception'
p1
NsS'name'
p2
S'penalty(l2)-C(1.584893e+02)'
p3
sS'algorithm'
p4
S'lr'
p5
sS'sklearn_metric_recall'
p6
cnumpy.core.multiarray
scalar
p7
(cnumpy
dtype
p8
(S'f8'
p9
I0
I1
tp10
Rp11
(I3
S'<'
p12
NNNI-1
I-1
I0
tp13
bS'\\\x8f\xc2\xf5(\\\xef?'
p14
tp15
Rp16
sS'data_set'
p17
S'iris'
p18
sS'sklearn_metric_accuracy'
p19
g7
(g11
S'\\\x8f\xc2\xf5(\\\xef?'
p20
tp21
Rp22
sS'ml_metric_auc'
p23
(dp24
g7
(g8
(S'u1'
p25
I0
I1
tp26
Rp27
(I3
S'|'
p28
NNNI-1
I-1
I0
tp29
bS'\x00'
p30
tp31
Rp32
F1.0
sg7
(g27
S'\x01'
p33
tp34
Rp35
F0.9848484848484849
sg7
(g27
S'\x02'
p36
tp37
Rp38
F0.9705882352941176
ssS'sklearn_metric_precision'
p39
g7
(g11
S'\xbb\xdc\xfe Ce\xef?'
p40
tp41
Rp42
sS'dump_path'
p43
S'runs/iris/2/lr'
p44
sS'ml_metric_rmse'
p45
g7
(g11
S'\nc\xffQ\x18\x1a\xc2?'
p46
tp47
Rp48
sS'sklearn_metric_f1'
p49
g7
(g11
S'\x04CK\xa5\x04\\\xef?'
p50
tp51
Rp52
sS'predicted'
p53
cnumpy.core.multiarray
_reconstruct
p54
(cnumpy
ndarray
p55
(I0
tp56
S'b'
p57
tp58
Rp59
(I1
(I50
tp60
g8
(S'u1'
p61
I0
I1
tp62
Rp63
(I3
S'|'
p64
NNNI-1
I-1
I0
tp65
bI00
S'\x00\x00\x00\x00\x00\x00\x00\x00\x00\x00\x00\x00\x00\x00\x00\x00\x01\x01\x01\x01\x01\x01\x01\x01\x01\x01\x01\x01\x01\x01\x01\x01\x01\x02\x02\x02\x02\x02\x02\x02\x02\x02\x02\x01\x02\x02\x02\x02\x02\x02'
p66
tp67
bsS'ml_metric_ce'
p68
F0.02
sS'parameterization'
p69
(dp70
S'penalty'
p71
S'l2'
p72
sS'C'
p73
g7
(g11
S'7\xeb\xd5\x80\xa8\xcfc@'
p74
tp75
Rp76
ssS'sklearn_metric_auc'
p77
(dp78
g32
g7
(g11
S'\x00\x00\x00\x00\x00\x00\xf0?'
p79
tp80
Rp81
sg35
g7
(g11
S'\x84\x0f>\xf8\xe0\x83\xef?'
p82
tp83
Rp84
sg38
g7
(g11
S'\x0f\x0f\x0f\x0f\x0f\x0f\xef?'
p85
tp86
Rp87
ssS'trial_index'
p88
I2
s.