(dp0
S'exception'
p1
NsS'data_set'
p2
S'iris'
p3
sS'name'
p4
S'kernel(poly)-degree(2)-C(1.000000e+05)'
p5
sS'algorithm'
p6
S'svm'
p7
sS'sklearn_metric_recall'
p8
cnumpy.core.multiarray
scalar
p9
(cnumpy
dtype
p10
(S'f8'
p11
I0
I1
tp12
Rp13
(I3
S'<'
p14
NNNI-1
I-1
I0
tp15
bS'\x85\xebQ\xb8\x1e\x85\xeb?'
p16
tp17
Rp18
sS'ml_metric_ce'
p19
F0.14
sS'sklearn_metric_accuracy'
p20
g9
(g13
S'\x85\xebQ\xb8\x1e\x85\xeb?'
p21
tp22
Rp23
sS'ml_metric_auc'
p24
(dp25
g9
(g10
(S'u1'
p26
I0
I1
tp27
Rp28
(I3
S'|'
p29
NNNI-1
I-1
I0
tp30
bS'\x00'
p31
tp32
Rp33
F0.9402852049910874
sg9
(g28
S'\x01'
p34
tp35
Rp36
F0.8966131907308378
sg9
(g28
S'\x02'
p37
tp38
Rp39
F0.8474264705882353
ssS'sklearn_metric_precision'
p40
g9
(g13
S'\x85Y`\x9a\x07\xa8\xeb?'
p41
tp42
Rp43
sS'dump_path'
p44
S'runs/iris/0/svm'
p45
sS'ml_metric_rmse'
p46
g9
(g13
S'\nc\xffQ\x18\x1a\xe2?'
p47
tp48
Rp49
sS'sklearn_metric_f1'
p50
g9
(g13
S'\x81\x881\xe7\t\x89\xeb?'
p51
tp52
Rp53
sS'predicted'
p54
cnumpy.core.multiarray
_reconstruct
p55
(cnumpy
ndarray
p56
(I0
tp57
S'b'
p58
tp59
Rp60
(I1
(I50
tp61
g28
I00
S'\x00\x00\x00\x00\x00\x00\x00\x00\x02\x00\x00\x00\x00\x00\x00\x00\x00\x02\x01\x01\x01\x01\x01\x01\x02\x01\x01\x02\x01\x01\x01\x01\x01\x01\x02\x00\x01\x02\x02\x00\x02\x02\x02\x02\x02\x02\x02\x02\x02\x02'
p62
tp63
bsS'parameterization'
p64
(dp65
S'kernel'
p66
S'poly'
p67
sS'C'
p68
g9
(g13
S'\x00\x00\x00\x00\x00j\xf8@'
p69
tp70
Rp71
sS'degree'
p72
I2
ssS'sklearn_metric_auc'
p73
(dp74
g33
g9
(g13
S'\x18.\x8b\xff\xd0\x16\xee?'
p75
tp76
Rp77
sg36
g9
(g13
S'\xb1<k%\x0e\xb1\xec?'
p78
tp79
Rp80
sg39
g9
(g13
S'\x1e\x1e\x1e\x1e\x1e\x1e\xeb?'
p81
tp82
Rp83
ssS'trial_index'
p84
I0
s.