(dp0
S'exception'
p1
NsS'ml_metric_ce'
p2
F0.06
sS'name'
p3
S'estimators(500)-split(2)'
p4
sS'algorithm'
p5
S'rf'
p6
sS'sklearn_metric_recall'
p7
cnumpy.core.multiarray
scalar
p8
(cnumpy
dtype
p9
(S'f8'
p10
I0
I1
tp11
Rp12
(I3
S'<'
p13
NNNI-1
I-1
I0
tp14
bS'\x14\xaeG\xe1z\x14\xee?'
p15
tp16
Rp17
sS'data_set'
p18
S'iris'
p19
sS'sklearn_metric_accuracy'
p20
g8
(g12
S'\x14\xaeG\xe1z\x14\xee?'
p21
tp22
Rp23
sS'parameterization'
p24
(dp25
S'n_estimators'
p26
I500
sS'split'
p27
I2
ssS'sklearn_metric_precision'
p28
g8
(g12
S'\x1d\xb7P\xea\x83\x1d\xee?'
p29
tp30
Rp31
sS'dump_path'
p32
S'runs/iris/1/rf'
p33
sS'ml_metric_rmse'
p34
g8
(g12
S'Jh\xdb\xec|Z\xcf?'
p35
tp36
Rp37
sS'sklearn_metric_f1'
p38
g8
(g12
S'\x14\xaeG\xe1z\x14\xee?'
p39
tp40
Rp41
sS'predicted'
p42
cnumpy.core.multiarray
_reconstruct
p43
(cnumpy
ndarray
p44
(I0
tp45
S'b'
p46
tp47
Rp48
(I1
(I50
tp49
g9
(S'u1'
p50
I0
I1
tp51
Rp52
(I3
S'|'
p53
NNNI-1
I-1
I0
tp54
bI00
S'\x00\x00\x00\x00\x00\x00\x00\x00\x00\x00\x00\x00\x00\x00\x00\x00\x00\x01\x01\x01\x01\x01\x01\x01\x01\x01\x02\x01\x01\x01\x01\x01\x01\x02\x02\x02\x02\x02\x02\x02\x01\x02\x02\x02\x02\x02\x02\x01\x02\x02'
p55
tp56
bsS'ml_metric_auc'
p57
(dp58
g8
(g9
(S'u1'
p59
I0
I1
tp60
Rp61
(I3
S'|'
p62
NNNI-1
I-1
I0
tp63
bS'\x00'
p64
tp65
Rp66
F1.0
sg8
(g61
S'\x01'
p67
tp68
Rp69
F0.9393382352941176
sg8
(g61
S'\x02'
p70
tp71
Rp72
F0.9260249554367201
ssS'sklearn_metric_auc'
p73
(dp74
g66
g8
(g12
S'\x00\x00\x00\x00\x00\x00\xf0?'
p75
tp76
Rp77
sg69
g8
(g12
S'\x0f\x0f\x0f\x0f\x0f\x0f\xee?'
p78
tp79
Rp80
sg72
g8
(g12
S'\xa3-\\\x16\xff\xa1\xed?'
p81
tp82
Rp83
ssS'trial_index'
p84
I1
s.