(dp0
S'exception'
p1
NsS'data_set'
p2
S'iris'
p3
sS'name'
p4
S'penalty(l2)-C(2.511886e-01)'
p5
sS'algorithm'
p6
S'lr'
p7
sS'sklearn_metric_recall'
p8
cnumpy.core.multiarray
scalar
p9
(cnumpy
dtype
p10
(S'f8'
p11
I0
I1
tp12
Rp13
(I3
S'<'
p14
NNNI-1
I-1
I0
tp15
bS'=\n\xd7\xa3p=\xea?'
p16
tp17
Rp18
sS'ml_metric_ce'
p19
F0.18
sS'sklearn_metric_accuracy'
p20
g9
(g13
S'=\n\xd7\xa3p=\xea?'
p21
tp22
Rp23
sS'ml_metric_auc'
p24
(dp25
g9
(g10
(S'u1'
p26
I0
I1
tp27
Rp28
(I3
S'|'
p29
NNNI-1
I-1
I0
tp30
bS'\x00'
p31
tp32
Rp33
F1.0
sg9
(g28
S'\x01'
p34
tp35
Rp36
F0.749554367201426
sg9
(g28
S'\x02'
p37
tp38
Rp39
F0.8511029411764706
ssS'sklearn_metric_precision'
p40
g9
(g13
S'\xe4\xd9C\xb2\xaaY\xeb?'
p41
tp42
Rp43
sS'dump_path'
p44
S'runs/iris/0/lr'
p45
sS'ml_metric_rmse'
p46
g9
(g13
S"\x8f\x14\xffz$'\xdb?"
p47
tp48
Rp49
sS'sklearn_metric_f1'
p50
g9
(g13
S'*\xa0\x02*\xa0\x02\xea?'
p51
tp52
Rp53
sS'predicted'
p54
cnumpy.core.multiarray
_reconstruct
p55
(cnumpy
ndarray
p56
(I0
tp57
S'b'
p58
tp59
Rp60
(I1
(I50
tp61
g28
I00
S'\x00\x00\x00\x00\x00\x00\x00\x00\x00\x00\x00\x00\x00\x00\x00\x00\x00\x02\x01\x02\x02\x01\x01\x01\x02\x01\x02\x02\x02\x02\x01\x01\x01\x01\x02\x02\x01\x02\x02\x02\x02\x02\x02\x02\x02\x02\x02\x02\x02\x02'
p62
tp63
bsS'parameterization'
p64
(dp65
S'penalty'
p66
S'l2'
p67
sS'C'
p68
g9
(g13
S'=p\xdd\x87y\x13\xd0?'
p69
tp70
Rp71
ssS'sklearn_metric_auc'
p72
(dp73
g33
g9
(g13
S'\x00\x00\x00\x00\x00\x00\xf0?'
p74
tp75
Rp76
sg36
g9
(g13
S'\xfc\x87\xb6pY\xfc\xe7?'
p77
tp78
Rp79
sg39
g9
(g13
S'<<<<<<\xeb?'
p80
tp81
Rp82
ssS'trial_index'
p83
I0
s.