(dp0
S'ml_metric_auc'
p1
(dp2
cnumpy.core.multiarray
scalar
p3
(cnumpy
dtype
p4
(S'u1'
p5
I0
I1
tp6
Rp7
(I3
S'|'
p8
NNNI-1
I-1
I0
tp9
bS'\x00'
p10
tp11
Rp12
F1.0
sg3
(g7
S'\x01'
p13
tp14
Rp15
F0.9848484848484849
sg3
(g7
S'\x02'
p16
tp17
Rp18
F0.9705882352941176
ssS'exception'
p19
NsS'name'
p20
S'estimators(500)-split(4)'
p21
sS'algorithm'
p22
S'rf'
p23
sS'sklearn_metric_recall'
p24
g3
(g4
(S'f8'
p25
I0
I1
tp26
Rp27
(I3
S'<'
p28
NNNI-1
I-1
I0
tp29
bS'\\\x8f\xc2\xf5(\\\xef?'
p30
tp31
Rp32
sS'ml_metric_ce'
p33
F0.02
sS'sklearn_metric_accuracy'
p34
g3
(g27
S'\\\x8f\xc2\xf5(\\\xef?'
p35
tp36
Rp37
sS'parameterization'
p38
(dp39
S'n_estimators'
p40
I500
sS'split'
p41
I4
ssS'sklearn_metric_precision'
p42
g3
(g27
S'\xbb\xdc\xfe Ce\xef?'
p43
tp44
Rp45
sS'dump_path'
p46
S'runs/iris/2/rf'
p47
sS'ml_metric_rmse'
p48
g3
(g27
S'\nc\xffQ\x18\x1a\xc2?'
p49
tp50
Rp51
sS'sklearn_metric_f1'
p52
g3
(g27
S'\x04CK\xa5\x04\\\xef?'
p53
tp54
Rp55
sS'predicted'
p56
cnumpy.core.multiarray
_reconstruct
p57
(cnumpy
ndarray
p58
(I0
tp59
S'b'
p60
tp61
Rp62
(I1
(I50
tp63
g4
(S'u1'
p64
I0
I1
tp65
Rp66
(I3
S'|'
p67
NNNI-1
I-1
I0
tp68
bI00
S'\x00\x00\x00\x00\x00\x00\x00\x00\x00\x00\x00\x00\x00\x00\x00\x00\x01\x01\x01\x01\x01\x01\x01\x01\x01\x01\x01\x01\x01\x01\x01\x01\x01\x02\x02\x02\x02\x02\x02\x02\x02\x02\x02\x01\x02\x02\x02\x02\x02\x02'
p69
tp70
bsS'data_set'
p71
S'iris'
p72
sS'sklearn_metric_auc'
p73
(dp74
g12
g3
(g27
S'\x00\x00\x00\x00\x00\x00\xf0?'
p75
tp76
Rp77
sg15
g3
(g27
S'\x84\x0f>\xf8\xe0\x83\xef?'
p78
tp79
Rp80
sg18
g3
(g27
S'\x0f\x0f\x0f\x0f\x0f\x0f\xef?'
p81
tp82
Rp83
ssS'trial_index'
p84
I2
s.