(dp0
S'exception'
p1
NsS'ml_metric_ce'
p2
F0.8998330550918197
sS'name'
p3
S'penalty(elasticnet)-alpha(1.584893e+02)'
p4
sS'algorithm'
p5
S'pr'
p6
sS'sklearn_metric_recall'
p7
cnumpy.core.multiarray
scalar
p8
(cnumpy
dtype
p9
(S'f8'
p10
I0
I1
tp11
Rp12
(I3
S'<'
p13
NNNI-1
I-1
I0
tp14
bS'\x9dW\x85x\x8a\xa4\xb9?'
p15
tp16
Rp17
sS'data_set'
p18
S'digits'
p19
sS'sklearn_metric_accuracy'
p20
g8
(g12
S'\x9dW\x85x\x8a\xa4\xb9?'
p21
tp22
Rp23
sS'parameterization'
p24
(dp25
S'penalty'
p26
S'elasticnet'
p27
sS'alpha'
p28
g8
(g12
S'7\xeb\xd5\x80\xa8\xcfc@'
p29
tp30
Rp31
ssS'sklearn_metric_precision'
p32
g8
(g12
S'\xeb\xe0\xfaif\x8c\x84?'
p33
tp34
Rp35
sS'dump_path'
p36
S'runs/digits/1/pr'
p37
sS'ml_metric_rmse'
p38
g8
(g12
S'\xdc\x0f\xf5B\xaa\\\x15@'
p39
tp40
Rp41
sS'sklearn_metric_f1'
p42
g8
(g12
S'\xad\x8e7\xc9t\xad\x92?'
p43
tp44
Rp45
sS'predicted'
p46
cnumpy.core.multiarray
_reconstruct
p47
(cnumpy
ndarray
p48
(I0
tp49
S'b'
p50
tp51
Rp52
(I1
(I599
tp53
g9
(S'u1'
p54
I0
I1
tp55
Rp56
(I3
S'|'
p57
NNNI-1
I-1
I0
tp58
bI00
S'\t\t\t\t\t\t\t\t\t\t\t\t\t\t\t\t\t\t\t\t\t\t\t\t\t\t\t\t\t\t\t\t\t\t\t\t\t\t\t\t\t\t\t\t\t\t\t\t\t\t\t\t\t\t\t\t\t\t\t\t\t\t\t\t\t\t\t\t\t\t\t\t\t\t\t\t\t\t\t\t\t\t\t\t\t\t\t\t\t\t\t\t\t\t\t\t\t\t\t\t\t\t\t\t\t\t\t\t\t\t\t\t\t\t\t\t\t\t\t\t\t\t\t\t\t\t\t\t\t\t\t\t\t\t\t\t\t\t\t\t\t\t\t\t\t\t\t\t\t\t\t\t\t\t\t\t\t\t\t\t\t\t\t\t\t\t\t\t\t\t\t\t\t\t\t\t\t\t\t\t\t\t\t\t\t\t\t\t\t\t\t\t\t\t\t\t\t\t\t\t\t\t\t\t\t\t\t\t\t\t\t\t\t\t\t\t\t\t\t\t\t\t\t\t\t\t\t\t\t\t\t\t\t\t\t\t\t\t\t\t\t\t\t\t\t\t\t\t\t\t\t\t\t\t\t\t\t\t\t\t\t\t\t\t\t\t\t\t\t\t\t\t\t\t\t\t\t\t\t\t\t\t\t\t\t\t\t\t\t\t\t\t\t\t\t\t\t\t\t\t\t\t\t\t\t\t\t\t\t\t\t\t\t\t\t\t\t\t\t\t\t\t\t\t\t\t\t\t\t\t\t\t\t\t\t\t\t\t\t\t\t\t\t\t\t\t\t\t\t\t\t\t\t\t\t\t\t\t\t\t\t\t\t\t\t\t\t\t\t\t\t\t\t\t\t\t\t\t\t\t\t\t\t\t\t\t\t\t\t\t\t\t\t\t\t\t\t\t\t\t\t\t\t\t\t\t\t\t\t\t\t\t\t\t\t\t\t\t\t\t\t\t\t\t\t\t\t\t\t\t\t\t\t\t\t\t\t\t\t\t\t\t\t\t\t\t\t\t\t\t\t\t\t\t\t\t\t\t\t\t\t\t\t\t\t\t\t\t\t\t\t\t\t\t\t\t\t\t\t\t\t\t\t\t\t\t\t\t\t\t\t\t\t\t\t\t\t\t\t\t\t\t\t\t\t\t\t\t\t\t\t\t\t\t\t\t\t\t\t\t\t\t\t\t\t\t\t\t\t\t\t\t\t\t\t\t\t\t\t\t\t\t\t\t\t\t\t\t\t\t\t\t\t\t\t\t\t\t\t\t\t\t\t\t\t\t\t\t\t\t\t\t\t\t\t\t\t\t\t\t\t\t\t\t\t\t\t\t\t\t\t\t\t\t\t\t\t\t\t'
p59
tp60
bsS'ml_metric_auc'
p61
(dp62
g8
(g9
(S'u1'
p63
I0
I1
tp64
Rp65
(I3
S'|'
p66
NNNI-1
I-1
I0
tp67
bS'\x00'
p68
tp69
Rp70
F0.5
sg8
(g65
S'\x01'
p71
tp72
Rp73
F0.5
sg8
(g65
S'\x02'
p74
tp75
Rp76
F0.5
sg8
(g65
S'\x03'
p77
tp78
Rp79
F0.5
sg8
(g65
S'\x04'
p80
tp81
Rp82
F0.5
sg8
(g65
S'\x05'
p83
tp84
Rp85
F0.5
sg8
(g65
S'\x06'
p86
tp87
Rp88
F0.5
sg8
(g65
S'\x07'
p89
tp90
Rp91
F0.5
sg8
(g65
S'\x08'
p92
tp93
Rp94
F0.5
sg8
(g65
S'\t'
p95
tp96
Rp97
F0.5
ssS'sklearn_metric_auc'
p98
(dp99
g70
g8
(g12
S'\x00\x00\x00\x00\x00\x00\xe0?'
p100
tp101
Rp102
sg73
g8
(g12
S'\x00\x00\x00\x00\x00\x00\xe0?'
p103
tp104
Rp105
sg76
g8
(g12
S'\x00\x00\x00\x00\x00\x00\xe0?'
p106
tp107
Rp108
sg79
g8
(g12
S'\x00\x00\x00\x00\x00\x00\xe0?'
p109
tp110
Rp111
sg82
g8
(g12
S'\x00\x00\x00\x00\x00\x00\xe0?'
p112
tp113
Rp114
sg85
g8
(g12
S'\x00\x00\x00\x00\x00\x00\xe0?'
p115
tp116
Rp117
sg88
g8
(g12
S'\x00\x00\x00\x00\x00\x00\xe0?'
p118
tp119
Rp120
sg91
g8
(g12
S'\x00\x00\x00\x00\x00\x00\xe0?'
p121
tp122
Rp123
sg94
g8
(g12
S'\x00\x00\x00\x00\x00\x00\xe0?'
p124
tp125
Rp126
sg97
g8
(g12
S'\x00\x00\x00\x00\x00\x00\xe0?'
p127
tp128
Rp129
ssS'trial_index'
p130
I1
s.