(dp0
S'exception'
p1
S'floating-point under-/overflow occured.'
p2
sS'name'
p3
S'penalty(l2)-alpha(1.584893e+02)'
p4
sS'algorithm'
p5
S'pr'
p6
sS'parameterization'
p7
(dp8
S'penalty'
p9
S'l2'
p10
sS'alpha'
p11
cnumpy.core.multiarray
scalar
p12
(cnumpy
dtype
p13
(S'f8'
p14
I0
I1
tp15
Rp16
(I3
S'<'
p17
NNNI-1
I-1
I0
tp18
bS'7\xeb\xd5\x80\xa8\xcfc@'
p19
tp20
Rp21
ssS'data_set'
p22
S'iris'
p23
sS'dump_path'
p24
S'runs/iris/2/pr'
p25
sS'trial_index'
p26
I2
s.