(dp0
S'exception'
p1
NsS'data_set'
p2
S'iris'
p3
sS'name'
p4
S'neighbors(40)-weights(distance)'
p5
sS'algorithm'
p6
S'knn'
p7
sS'sklearn_metric_recall'
p8
cnumpy.core.multiarray
scalar
p9
(cnumpy
dtype
p10
(S'f8'
p11
I0
I1
tp12
Rp13
(I3
S'<'
p14
NNNI-1
I-1
I0
tp15
bS'\x85\xebQ\xb8\x1e\x85\xeb?'
p16
tp17
Rp18
sS'ml_metric_ce'
p19
F0.14
sS'sklearn_metric_accuracy'
p20
g9
(g13
S'\x85\xebQ\xb8\x1e\x85\xeb?'
p21
tp22
Rp23
sS'ml_metric_auc'
p24
(dp25
g9
(g10
(S'u1'
p26
I0
I1
tp27
Rp28
(I3
S'|'
p29
NNNI-1
I-1
I0
tp30
bS'\x00'
p31
tp32
Rp33
F1.0
sg9
(g28
S'\x01'
p34
tp35
Rp36
F0.8805147058823529
sg9
(g28
S'\x02'
p37
tp38
Rp39
F0.8083778966131907
ssS'sklearn_metric_precision'
p40
g9
(g13
S'\xe1\xb5\xf7\x14\xe9*\xec?'
p41
tp42
Rp43
sS'dump_path'
p44
S'runs/iris/1/knn'
p45
sS'ml_metric_rmse'
p46
g9
(g13
S';\xcc\xb9\xdaT\xf2\xd7?'
p47
tp48
Rp49
sS'sklearn_metric_f1'
p50
g9
(g13
S'vBl0\xbeo\xeb?'
p51
tp52
Rp53
sS'predicted'
p54
cnumpy.core.multiarray
_reconstruct
p55
(cnumpy
ndarray
p56
(I0
tp57
S'b'
p58
tp59
Rp60
(I1
(I50
tp61
g28
I00
S'\x00\x00\x00\x00\x00\x00\x00\x00\x00\x00\x00\x00\x00\x00\x00\x00\x00\x02\x01\x01\x01\x01\x01\x01\x01\x01\x01\x01\x01\x01\x01\x01\x01\x01\x02\x02\x02\x02\x01\x02\x01\x01\x02\x02\x02\x02\x01\x02\x01\x02'
p62
tp63
bsS'parameterization'
p64
(dp65
S'n_neighbors'
p66
I40
sS'weights'
p67
S'distance'
p68
ssS'sklearn_metric_auc'
p69
(dp70
g33
g9
(g13
S'\x00\x00\x00\x00\x00\x00\xf0?'
p71
tp72
Rp73
sg36
g9
(g13
S'------\xec?'
p74
tp75
Rp76
sg39
g9
(g13
S'\xdei\x98R;\xde\xe9?'
p77
tp78
Rp79
ssS'trial_index'
p80
I1
s.