(dp0
S'exception'
p1
S'floating-point under-/overflow occured.'
p2
sS'name'
p3
S'penalty(l2)-alpha(1.000000e+05)'
p4
sS'algorithm'
p5
S'pr'
p6
sS'parameterization'
p7
(dp8
S'penalty'
p9
S'l2'
p10
sS'alpha'
p11
cnumpy.core.multiarray
scalar
p12
(cnumpy
dtype
p13
(S'f8'
p14
I0
I1
tp15
Rp16
(I3
S'<'
p17
NNNI-1
I-1
I0
tp18
bS'\x00\x00\x00\x00\x00j\xf8@'
p19
tp20
Rp21
ssS'data_set'
p22
S'covtype'
p23
sS'dump_path'
p24
S'runs/covtype/0/pr'
p25
sS'trial_index'
p26
I0
s.