(dp0
S'exception'
p1
NsS'data_set'
p2
S'iris'
p3
sS'name'
p4
S'neighbors(5)-weights(gaussian)-width(7.289000e+02)'
p5
sS'algorithm'
p6
S'knn'
p7
sS'sklearn_metric_recall'
p8
cnumpy.core.multiarray
scalar
p9
(cnumpy
dtype
p10
(S'f8'
p11
I0
I1
tp12
Rp13
(I3
S'<'
p14
NNNI-1
I-1
I0
tp15
bS'\x14\xaeG\xe1z\x14\xee?'
p16
tp17
Rp18
sS'ml_metric_ce'
p19
F0.06
sS'sklearn_metric_accuracy'
p20
g9
(g13
S'\x14\xaeG\xe1z\x14\xee?'
p21
tp22
Rp23
sS'ml_metric_auc'
p24
(dp25
g9
(g10
(S'u1'
p26
I0
I1
tp27
Rp28
(I3
S'|'
p29
NNNI-1
I-1
I0
tp30
bS'\x00'
p31
tp32
Rp33
F1.0
sg9
(g28
S'\x01'
p34
tp35
Rp36
F0.9545454545454546
sg9
(g28
S'\x02'
p37
tp38
Rp39
F0.9117647058823529
ssS'sklearn_metric_precision'
p40
g9
(g13
S'\x92\xed|?5^\xee?'
p41
tp42
Rp43
sS'dump_path'
p44
S'runs/iris/2/knn'
p45
sS'ml_metric_rmse'
p46
g9
(g13
S'Jh\xdb\xec|Z\xcf?'
p47
tp48
Rp49
sS'sklearn_metric_f1'
p50
g9
(g13
S'\xa1\r\x03\x8e\x9f\x10\xee?'
p51
tp52
Rp53
sS'predicted'
p54
cnumpy.core.multiarray
_reconstruct
p55
(cnumpy
ndarray
p56
(I0
tp57
S'b'
p58
tp59
Rp60
(I1
(I50
tp61
g28
I00
S'\x00\x00\x00\x00\x00\x00\x00\x00\x00\x00\x00\x00\x00\x00\x00\x00\x01\x01\x01\x01\x01\x01\x01\x01\x01\x01\x01\x01\x01\x01\x01\x01\x01\x02\x02\x02\x02\x02\x02\x02\x02\x02\x01\x01\x02\x02\x02\x02\x02\x01'
p62
tp63
bsS'parameterization'
p64
(dp65
S'n_neighbors'
p66
I5
sS'width'
p67
g9
(g13
S'33333\xc7\x86@'
p68
tp69
Rp70
ssS'sklearn_metric_auc'
p71
(dp72
g33
g9
(g13
S'\x00\x00\x00\x00\x00\x00\xf0?'
p73
tp74
Rp75
sg36
g9
(g13
S'\x8b.\xba\xe8\xa2\x8b\xee?'
p76
tp77
Rp78
sg39
g9
(g13
S'------\xed?'
p79
tp80
Rp81
ssS'trial_index'
p82
I2
s.